; Function Attrs: mustprogress nounwind uwtable
define internal fastcc void @_ZN12_GLOBAL__N_111StmtPrinter22VisitShuffleVectorExprEPN5clang17ShuffleVectorExprE(ptr noundef nonnull align 8 dereferenceable(80) %0, ptr noundef readonly captures(none) %1) unnamed_addr #0 align 2 {
  %3 = load ptr, ptr %0, align 8
  %4 = getelementptr inbounds nuw i8, ptr %3, i64 24
  %5 = load ptr, ptr %4, align 8
  %6 = getelementptr inbounds nuw i8, ptr %3, i64 32
  %7 = load ptr, ptr %6, align 8
  %8 = ptrtoint ptr %5 to i64
  %9 = ptrtoint ptr %7 to i64
  %10 = sub i64 %8, %9
  %11 = icmp ult i64 %10, 24
  br i1 %11, label %12, label %14

12:                                               ; preds = %2
  %13 = tail call noundef nonnull align 8 dereferenceable(48) ptr @_ZN4llvm11raw_ostream5writeEPKcm(ptr noundef nonnull align 8 dereferenceable(48) %3, ptr noundef nonnull @.str.34, i64 noundef 24) #19
  br label %_ZN4llvm11raw_ostreamlsEPKc.exit

14:                                               ; preds = %2
  tail call void @llvm.memcpy.p0.p0.i64(ptr noundef nonnull align 1 dereferenceable(24) %7, ptr noundef nonnull align 1 dereferenceable(24) @.str.34, i64 24, i1 false)
  %15 = load ptr, ptr %6, align 8
  %16 = getelementptr inbounds nuw i8, ptr %15, i64 24
  store ptr %16, ptr %6, align 8
  br label %_ZN4llvm11raw_ostreamlsEPKc.exit

_ZN4llvm11raw_ostreamlsEPKc.exit:                 ; preds = %12, %14
  %17 = getelementptr inbounds nuw i8, ptr %1, i64 32
  %18 = load i32, ptr %17, align 8
  %.not20 = icmp eq i32 %18, 0
  br i1 %.not20, label %._crit_edge, label %.lr.ph

.lr.ph:                                           ; preds = %_ZN4llvm11raw_ostreamlsEPKc.exit
  %19 = getelementptr inbounds nuw i8, ptr %1, i64 24
  %20 = getelementptr inbounds nuw i8, ptr %0, i64 16
  %21 = zext i32 %18 to i64
  br label %22

22:                                               ; preds = %.lr.ph, %_ZN12_GLOBAL__N_111StmtPrinter9PrintExprEPN5clang4ExprE.exit
  %indvars.iv = phi i64 [ 0, %.lr.ph ], [ %indvars.iv.next, %_ZN12_GLOBAL__N_111StmtPrinter9PrintExprEPN5clang4ExprE.exit ]
  %.not9 = icmp eq i64 %indvars.iv, 0
  br i1 %.not9, label %.split, label %.split8

.split:                                           ; preds = %22
  %23 = load ptr, ptr %19, align 8
  br label %40

.split8:                                          ; preds = %22
  %24 = load ptr, ptr %0, align 8
  %25 = getelementptr inbounds nuw i8, ptr %24, i64 24
  %26 = load ptr, ptr %25, align 8
  %27 = getelementptr inbounds nuw i8, ptr %24, i64 32
  %28 = load ptr, ptr %27, align 8
  %29 = ptrtoint ptr %26 to i64
  %30 = ptrtoint ptr %28 to i64
  %31 = sub i64 %29, %30
  %32 = icmp ult i64 %31, 2
  br i1 %32, label %33, label %35

33:                                               ; preds = %.split8
  %34 = tail call noundef nonnull align 8 dereferenceable(48) ptr @_ZN4llvm11raw_ostream5writeEPKcm(ptr noundef nonnull align 8 dereferenceable(48) %24, ptr noundef nonnull @.str.9, i64 noundef 2) #19
  br label %_ZN4llvm11raw_ostreamlsEPKc.exit12

35:                                               ; preds = %.split8
  store i16 8236, ptr %28, align 1
  %36 = load ptr, ptr %27, align 8
  %37 = getelementptr inbounds nuw i8, ptr %36, i64 2
  store ptr %37, ptr %27, align 8
  br label %_ZN4llvm11raw_ostreamlsEPKc.exit12

_ZN4llvm11raw_ostreamlsEPKc.exit12:               ; preds = %33, %35
  %38 = load ptr, ptr %19, align 8
  %39 = getelementptr inbounds nuw ptr, ptr %38, i64 %indvars.iv
  br label %40

40:                                               ; preds = %.split, %_ZN4llvm11raw_ostreamlsEPKc.exit12
  %phi.call.in = phi ptr [ %23, %.split ], [ %39, %_ZN4llvm11raw_ostreamlsEPKc.exit12 ]
  %phi.call = load ptr, ptr %phi.call.in, align 8
  %.not.i = icmp eq ptr %phi.call, null
  br i1 %.not.i, label %50, label %41

41:                                               ; preds = %40
  %42 = load ptr, ptr %20, align 8
  %.not.i19 = icmp eq ptr %42, null
  br i1 %.not.i19, label %49, label %43

43:                                               ; preds = %41
  %44 = load ptr, ptr %0, align 8
  %45 = load ptr, ptr %42, align 8
  %46 = getelementptr inbounds nuw i8, ptr %45, i64 16
  %47 = load ptr, ptr %46, align 8
  %48 = tail call noundef zeroext i1 %47(ptr noundef nonnull align 8 dereferenceable(8) %42, ptr noundef nonnull %phi.call, ptr noundef nonnull align 8 dereferenceable(48) %44) #19
  br i1 %48, label %_ZN12_GLOBAL__N_111StmtPrinter9PrintExprEPN5clang4ExprE.exit, label %49

49:                                               ; preds = %43, %41
  tail call fastcc void @_ZN5clang15StmtVisitorBaseISt11add_pointerN12_GLOBAL__N_111StmtPrinterEvJEE5VisitEPNS_4StmtE(ptr noundef nonnull align 8 dereferenceable(80) %0, ptr noundef nonnull %phi.call)
  br label %_ZN12_GLOBAL__N_111StmtPrinter9PrintExprEPN5clang4ExprE.exit

50:                                               ; preds = %40
  %51 = load ptr, ptr %0, align 8
  %52 = getelementptr inbounds nuw i8, ptr %51, i64 24
  %53 = load ptr, ptr %52, align 8
  %54 = getelementptr inbounds nuw i8, ptr %51, i64 32
  %55 = load ptr, ptr %54, align 8
  %56 = ptrtoint ptr %53 to i64
  %57 = ptrtoint ptr %55 to i64
  %58 = sub i64 %56, %57
  %59 = icmp ult i64 %58, 11
  br i1 %59, label %60, label %62

60:                                               ; preds = %50
  %61 = tail call noundef nonnull align 8 dereferenceable(48) ptr @_ZN4llvm11raw_ostream5writeEPKcm(ptr noundef nonnull align 8 dereferenceable(48) %51, ptr noundef nonnull @.str.4, i64 noundef 11) #19
  br label %_ZN12_GLOBAL__N_111StmtPrinter9PrintExprEPN5clang4ExprE.exit

62:                                               ; preds = %50
  tail call void @llvm.memcpy.p0.p0.i64(ptr noundef nonnull align 1 dereferenceable(11) %55, ptr noundef nonnull align 1 dereferenceable(11) @.str.4, i64 11, i1 false)
  %63 = load ptr, ptr %54, align 8
  %64 = getelementptr inbounds nuw i8, ptr %63, i64 11
  store ptr %64, ptr %54, align 8
  br label %_ZN12_GLOBAL__N_111StmtPrinter9PrintExprEPN5clang4ExprE.exit

_ZN12_GLOBAL__N_111StmtPrinter9PrintExprEPN5clang4ExprE.exit: ; preds = %62, %60, %49, %43
  %indvars.iv.next = add nuw nsw i64 %indvars.iv, 1
  %.not = icmp eq i64 %indvars.iv.next, %21
  br i1 %.not, label %._crit_edge, label %22, !llvm.loop !18

._crit_edge:                                      ; preds = %_ZN12_GLOBAL__N_111StmtPrinter9PrintExprEPN5clang4ExprE.exit, %_ZN4llvm11raw_ostreamlsEPKc.exit
  %65 = load ptr, ptr %0, align 8
  %66 = getelementptr inbounds nuw i8, ptr %65, i64 24
  %67 = load ptr, ptr %66, align 8
  %68 = getelementptr inbounds nuw i8, ptr %65, i64 32
  %69 = load ptr, ptr %68, align 8
  %70 = icmp eq ptr %67, %69
  br i1 %70, label %71, label %73

71:                                               ; preds = %._crit_edge
  %72 = tail call noundef nonnull align 8 dereferenceable(48) ptr @_ZN4llvm11raw_ostream5writeEPKcm(ptr noundef nonnull align 8 dereferenceable(48) %65, ptr noundef nonnull @.str.2, i64 noundef 1) #19
  br label %_ZN4llvm11raw_ostreamlsEPKc.exit15

73:                                               ; preds = %._crit_edge
  store i8 41, ptr %69, align 1
  %74 = load ptr, ptr %68, align 8
  %75 = getelementptr inbounds nuw i8, ptr %74, i64 1
  store ptr %75, ptr %68, align 8
  br label %_ZN4llvm11raw_ostreamlsEPKc.exit15

_ZN4llvm11raw_ostreamlsEPKc.exit15:               ; preds = %71, %73
  ret void
}